target datalayout = "e-m:e-p270:32:32-p271:32:32-p272:64:64-i64:64-i128:128-f80:128-n8:16:32:64-S128"
target triple = "x86_64-pc-linux-gnu"

@hf_ndps_pa_name = internal global i32 0, align 4
@hf_ndps_tree = internal global i32 0, align 4
@hf_ndps_printer_name = internal global i32 0, align 4
@hf_ndps_qualified_name = internal global i32 0, align 4

; Function Attrs: nounwind uwtable
define internal i32 @qualifiedname(ptr noundef %0, ptr noundef %1, i32 noundef %2) #0 {
  %4 = alloca ptr, align 8
  %5 = alloca ptr, align 8
  %6 = alloca i32, align 4
  %7 = alloca i32, align 4
  store ptr %0, ptr %4, align 8
  store ptr %1, ptr %5, align 8
  store i32 %2, ptr %6, align 4
  store i32 0, ptr %7, align 4
  %8 = load ptr, ptr %4, align 8
  %9 = load i32, ptr %6, align 4
  %10 = call i32 @tvb_get_ntohl(ptr noundef %8, i32 noundef %9)
  store i32 %10, ptr %7, align 4
  %11 = load ptr, ptr %5, align 8
  %12 = load i32, ptr @hf_ndps_qualified_name, align 4
  %13 = load ptr, ptr %4, align 8
  %14 = load i32, ptr %6, align 4
  %15 = load i32, ptr %7, align 4
  %16 = call ptr @proto_tree_add_uint(ptr noundef %11, i32 noundef %12, ptr noundef %13, i32 noundef %14, i32 noundef 4, i32 noundef %15)
  %17 = load i32, ptr %6, align 4
  %18 = add i32 %17, 4
  store i32 %18, ptr %6, align 4
  %19 = load i32, ptr %7, align 4
  %20 = icmp ne i32 %19, 0
  br i1 %20, label %21, label %42

21:                                               ; preds = %3
  %22 = load i32, ptr %7, align 4
  %23 = icmp eq i32 %22, 1
  br i1 %23, label %24, label %30

24:                                               ; preds = %21
  %25 = load ptr, ptr %4, align 8
  %26 = load i32, ptr @hf_ndps_printer_name, align 4
  %27 = load ptr, ptr %5, align 8
  %28 = load i32, ptr %6, align 4
  %29 = call i32 @ndps_string(ptr noundef %25, i32 noundef %26, ptr noundef %27, i32 noundef %28, ptr noundef null)
  store i32 %29, ptr %6, align 4
  br label %41

30:                                               ; preds = %21
  %31 = load ptr, ptr %4, align 8
  %32 = load i32, ptr @hf_ndps_pa_name, align 4
  %33 = load ptr, ptr %5, align 8
  %34 = load i32, ptr %6, align 4
  %35 = call i32 @ndps_string(ptr noundef %31, i32 noundef %32, ptr noundef %33, i32 noundef %34, ptr noundef null)
  store i32 %35, ptr %6, align 4
  %36 = load ptr, ptr %4, align 8
  %37 = load i32, ptr @hf_ndps_tree, align 4
  %38 = load ptr, ptr %5, align 8
  %39 = load i32, ptr %6, align 4
  %40 = call i32 @ndps_string(ptr noundef %36, i32 noundef %37, ptr noundef %38, i32 noundef %39, ptr noundef null)
  store i32 %40, ptr %6, align 4
  br label %41

41:                                               ; preds = %30, %24
  br label %42

42:                                               ; preds = %41, %3
  %43 = load i32, ptr %6, align 4
  ret i32 %43
}