; Function Attrs: nounwind uwtable
define internal fastcc i32 @qualifiedname(ptr noundef %0, ptr noundef %1, i32 noundef %2) unnamed_addr #0 {
  %4 = tail call i32 @tvb_get_ntohl(ptr noundef %0, i32 noundef %2) #6
  %5 = load i32, ptr @hf_ndps_qualified_name, align 4
  %6 = tail call ptr @proto_tree_add_uint(ptr noundef %1, i32 noundef %5, ptr noundef %0, i32 noundef %2, i32 noundef 4, i32 noundef %4) #6
  %7 = add i32 %2, 4
  switch i32 %4, label %8 [
    i32 0, label %13
    i32 1, label %.sink.split
  ]

8:                                                ; preds = %3
  %9 = load i32, ptr @hf_ndps_pa_name, align 4
  %10 = tail call fastcc i32 @ndps_string(ptr noundef %0, i32 noundef %9, ptr noundef %1, i32 noundef %7, ptr noundef null)
  br label %.sink.split

.sink.split:                                      ; preds = %3, %8
  %hf_ndps_printer_name.sink = phi ptr [ @hf_ndps_tree, %8 ], [ @hf_ndps_printer_name, %3 ]
  %.sink19 = phi i32 [ %10, %8 ], [ %7, %3 ]
  %11 = load i32, ptr %hf_ndps_printer_name.sink, align 4
  %12 = tail call fastcc i32 @ndps_string(ptr noundef %0, i32 noundef %11, ptr noundef %1, i32 noundef %.sink19, ptr noundef null)
  br label %13

13:                                               ; preds = %.sink.split, %3
  %.0 = phi i32 [ %7, %3 ], [ %12, %.sink.split ]
  ret i32 %.0
}